Certificate:
    Data:
        Version: 3 (0x2)
        Serial Number:
            ae:71:bc:6a:94:e9:36:4a:67:2e:c5:d4:00:fd:0c:34
    Signature Algorithm: sha256WithRSAEncryption
        Issuer: CN=rasvpn
        Validity
            Not Before: Jun  9 19:00:22 2020 GMT
            Not After : Sep 12 19:00:22 2022 GMT
        Subject: CN=rasvpn
        Subject Public Key Info:
            Public Key Algorithm: rsaEncryption
                Public-Key: (2048 bit)
                Modulus:
                    00:b4:0a:50:cd:6a:00:09:4c:6d:68:4a:ca:fd:ce:
                    c4:be:b0:1a:22:a3:65:16:c4:75:e0:55:43:36:ea:
                    df:6b:ce:d4:2c:db:44:e3:5a:53:be:d5:ca:f2:46:
                    d7:49:77:7e:b9:be:e8:79:7c:71:73:27:56:d9:c6:
                    81:92:9d:bf:28:81:70:0d:28:e3:21:15:c1:bc:a2:
                    1f:e3:20:cf:f2:66:26:94:c8:49:e4:d8:d2:af:85:
                    21:41:1f:88:da:30:e5:ce:73:9f:f9:7f:4c:83:60:
                    a6:b8:a9:22:d7:b0:f7:2a:69:c3:1c:df:af:9c:88:
                    b1:89:3a:61:ca:0a:d5:83:7b:5e:d5:50:68:e5:15:
                    dc:27:61:93:9a:a3:0b:74:c2:16:49:ed:25:df:09:
                    78:be:8d:a5:4a:51:89:d7:4b:1a:9d:49:65:eb:ea:
                    95:0e:8c:05:8f:94:c7:c4:6c:fa:5f:c7:ac:26:c2:
                    80:fd:7e:d6:8b:bc:ee:df:03:70:f2:fd:39:74:d0:
                    d9:08:3d:84:bc:69:19:95:25:76:6d:69:11:ed:42:
                    48:4c:48:e0:a2:fa:bd:9c:d1:9d:f4:4b:f2:2e:7c:
                    de:7d:7b:44:e1:8e:71:93:bb:c5:65:cc:97:b5:4a:
                    dc:d2:53:53:1e:20:59:7b:58:37:cc:05:6a:9a:fe:
                    4d:39
                Exponent: 65537 (0x10001)
        X509v3 extensions:
            X509v3 Basic Constraints:
                CA:FALSE
            X509v3 Subject Key Identifier:
                08:A7:F4:FA:84:7E:02:E7:39:92:3F:38:0F:6E:CA:18:A2:03:EE:41
            X509v3 Authority Key Identifier:
                keyid:C0:48:6C:73:B2:D7:5C:4B:49:CA:AE:12:1B:FE:EE:73:A2:9A:6D:1B
                DirName:/CN=rasvpn
                serial:A5:80:7D:07:A3:FF:37:05

            X509v3 Extended Key Usage:
                TLS Web Server Authentication
            X509v3 Key Usage:
                Digital Signature, Key Encipherment
            X509v3 Subject Alternative Name:
                DNS:rasvpn
    Signature Algorithm: sha256WithRSAEncryption
         9a:ef:5e:4a:05:2d:d8:95:80:76:b6:4e:c8:32:82:f9:3c:1e:
         1b:d5:ae:28:97:1c:c1:30:ff:cf:13:0e:12:af:68:af:72:c9:
         ea:2e:02:56:6e:e1:07:00:f4:3f:b2:cb:aa:26:e5:8f:49:16:
         2e:8f:4d:4a:61:01:20:ad:07:40:03:94:0f:0c:9d:f6:d6:26:
         44:1f:e6:98:c9:c9:59:95:cc:9f:bc:fa:75:9e:0c:74:22:60:
         d1:36:c4:a9:bb:5c:df:29:da:58:76:70:2f:e2:ad:72:9b:90:
         ef:2d:24:18:39:29:0f:8f:58:80:1e:48:6f:c8:0a:e6:42:e8:
         75:28:83:f5:8d:70:88:5a:35:8e:9f:b1:f6:64:b7:72:0b:9f:
         f4:bb:7b:de:d6:ca:8d:14:9b:a6:5d:40:ee:aa:07:4a:97:f8:
         a9:13:e9:05:4f:5b:91:09:b3:e1:f0:82:5c:b2:0d:01:cc:c2:
         3f:1b:f4:69:d3:b4:91:c1:b4:16:a4:e9:f5:ba:9e:d7:c9:81:
         d1:53:87:6e:8a:e5:cc:ca:a4:39:d1:90:4b:08:f2:a9:f8:78:
         06:b7:53:37:ba:ec:c2:55:9c:d9:44:ac:a8:f6:90:18:9c:4c:
         e5:8e:f8:f2:2e:28:22:bc:ed:a9:90:28:8f:49:91:68:3b:a4:
         cf:0c:9f:17
-----BEGIN CERTIFICATE-----
MIIDUzCCAjugAwIBAgIRAK5xvGqU6TZKZy7F1AD9DDQwDQYJKoZIhvcNAQELBQAw
ETEPMA0GA1UEAwwGcmFzdnBuMB4XDTIwMDYwOTE5MDAyMloXDTIyMDkxMjE5MDAy
MlowETEPMA0GA1UEAwwGcmFzdnBuMIIBIjANBgkqhkiG9w0BAQEFAAOCAQ8AMIIB
CgKCAQEAtApQzWoACUxtaErK/c7EvrAaIqNlFsR14FVDNurfa87ULNtE41pTvtXK
8kbXSXd+ub7oeXxxcydW2caBkp2/KIFwDSjjIRXBvKIf4yDP8mYmlMhJ5NjSr4Uh
QR+I2jDlznOf+X9Mg2CmuKki17D3KmnDHN+vnIixiTphygrVg3te1VBo5RXcJ2GT
mqMLdMIWSe0l3wl4vo2lSlGJ10sanUll6+qVDowFj5THxGz6X8esJsKA/X7Wi7zu
3wNw8v05dNDZCD2EvGkZlSV2bWkR7UJITEjgovq9nNGd9EvyLnzefXtE4Y5xk7vF
ZcyXtUrc0lNTHiBZe1g3zAVqmv5NOQIDAQABo4GlMIGiMAkGA1UdEwQCMAAwHQYD
VR0OBBYEFAin9PqEfgLnOZI/OA9uyhiiA+5BMEEGA1UdIwQ6MDiAFMBIbHOy11xL
ScquEhv+7nOimm0boRWkEzARMQ8wDQYDVQQDDAZyYXN2cG6CCQClgH0Ho/83BTAT
BgNVHSUEDDAKBggrBgEFBQcDATALBgNVHQ8EBAMCBaAwEQYDVR0RBAowCIIGcmFz
dnBuMA0GCSqGSIb3DQEBCwUAA4IBAQCa715KBS3YlYB2tk7IMoL5PB4b1a4olxzB
MP/PEw4Sr2ivcsnqLgJWbuEHAPQ/ssuqJuWPSRYuj01KYQEgrQdAA5QPDJ321iZE
H+aYyclZlcyfvPp1ngx0ImDRNsSpu1zfKdpYdnAv4q1ym5DvLSQYOSkPj1iAHkhv
yArmQuh1KIP1jXCIWjWOn7H2ZLdyC5/0u3ve1sqNFJumXUDuqgdKl/ipE+kFT1uR
CbPh8IJcsg0BzMI/G/Rp07SRwbQWpOn1up7XyYHRU4duiuXMyqQ50ZBLCPKp+HgG
t1M3uuzCVZzZRKyo9pAYnEzljvjyLigivO2pkCiPSZFoO6TPDJ8X
-----END CERTIFICATE-----